target datalayout = "e-m:e-p270:32:32-p271:32:32-p272:64:64-i64:64-i128:128-f80:128-n8:16:32:64-S128"
target triple = "x86_64-pc-linux-gnu"

%struct.AVFormatContext = type { ptr, ptr, ptr, ptr, ptr, i32, i32, ptr, i32, ptr, i32, ptr, ptr, i64, i64, i64, i32, i32, i32, i64, i64, ptr, i32, i32, ptr, i32, i32, i32, i32, ptr, i64, i32, i32, %struct.AVIOInterruptCB, i32, i32, i32, i32, i64, i32, i32, i32, i32, i32, i32, i32, i32, i32, i32, i32, i32, i64, i32, i32, i32, i32, i32, ptr, ptr, ptr, ptr, i32, ptr, ptr, ptr, ptr, i32, ptr, ptr, i64, ptr, ptr, ptr, i64 }
%struct.AVIOInterruptCB = type { ptr, ptr }
%struct.AVStream = type { ptr, i32, i32, ptr, ptr, %struct.AVRational, i64, i64, i64, i32, i32, %struct.AVRational, ptr, %struct.AVRational, %struct.AVPacket, i32, %struct.AVRational, i32 }
%struct.AVPacket = type { ptr, i64, i64, ptr, i32, i32, i32, ptr, i32, i64, i64, ptr, ptr, %struct.AVRational }
%struct.AVRational = type { i32, i32 }
%struct.AVCodecParameters = type { i32, i32, i32, ptr, i32, ptr, i32, i32, i64, i32, i32, i32, i32, i32, i32, %struct.AVRational, %struct.AVRational, i32, i32, i32, i32, i32, i32, i32, %struct.AVChannelLayout, i32, i32, i32, i32, i32, i32 }
%struct.AVChannelLayout = type { i32, i32, %union.anon.0, ptr }
%union.anon.0 = type { i64 }

; Function Attrs: nounwind uwtable
define internal i32 @get_nth_codec_stream_index(ptr noundef %0, i32 noundef %1, i64 noundef %2) #0 {
  %4 = alloca i32, align 4
  %5 = alloca ptr, align 8
  %6 = alloca i32, align 4
  %7 = alloca i64, align 8
  %8 = alloca i32, align 4
  %9 = alloca i32, align 4
  %10 = alloca i32, align 4
  store ptr %0, ptr %5, align 8, !tbaa !4
  store i32 %1, ptr %6, align 4, !tbaa !30
  store i64 %2, ptr %7, align 8, !tbaa !72
  call void @llvm.lifetime.start.p0(i64 4, ptr %8) #15
  call void @llvm.lifetime.start.p0(i64 4, ptr %9) #15
  %11 = load i64, ptr %7, align 8, !tbaa !72
  %12 = icmp slt i64 %11, 0
  br i1 %12, label %21, label %13

13:                                               ; preds = %3
  %14 = load i64, ptr %7, align 8, !tbaa !72
  %15 = load ptr, ptr %5, align 8, !tbaa !4
  %16 = getelementptr inbounds nuw %struct.AVFormatContext, ptr %15, i32 0, i32 6
  %17 = load i32, ptr %16, align 4, !tbaa !261
  %18 = sub i32 %17, 1
  %19 = zext i32 %18 to i64
  %20 = icmp sgt i64 %14, %19
  br i1 %20, label %21, label %22

21:                                               ; preds = %13, %3
  store i32 -1, ptr %4, align 4
  store i32 1, ptr %10, align 4
  br label %58

22:                                               ; preds = %13
  store i32 0, ptr %9, align 4, !tbaa !30
  store i32 0, ptr %8, align 4, !tbaa !30
  br label %23

23:                                               ; preds = %54, %22
  %24 = load i32, ptr %8, align 4, !tbaa !30
  %25 = load ptr, ptr %5, align 8, !tbaa !4
  %26 = getelementptr inbounds nuw %struct.AVFormatContext, ptr %25, i32 0, i32 6
  %27 = load i32, ptr %26, align 4, !tbaa !261
  %28 = icmp ult i32 %24, %27
  br i1 %28, label %29, label %57

29:                                               ; preds = %23
  %30 = load ptr, ptr %5, align 8, !tbaa !4
  %31 = getelementptr inbounds nuw %struct.AVFormatContext, ptr %30, i32 0, i32 7
  %32 = load ptr, ptr %31, align 8, !tbaa !55
  %33 = load i32, ptr %8, align 4, !tbaa !30
  %34 = zext i32 %33 to i64
  %35 = getelementptr inbounds nuw ptr, ptr %32, i64 %34
  %36 = load ptr, ptr %35, align 8, !tbaa !41
  %37 = getelementptr inbounds nuw %struct.AVStream, ptr %36, i32 0, i32 3
  %38 = load ptr, ptr %37, align 8, !tbaa !44
  %39 = getelementptr inbounds nuw %struct.AVCodecParameters, ptr %38, i32 0, i32 0
  %40 = load i32, ptr %39, align 8, !tbaa !51
  %41 = load i32, ptr %6, align 4, !tbaa !30
  %42 = icmp ne i32 %40, %41
  br i1 %42, label %43, label %44

43:                                               ; preds = %29
  br label %54

44:                                               ; preds = %29
  %45 = load i32, ptr %9, align 4, !tbaa !30
  %46 = zext i32 %45 to i64
  %47 = load i64, ptr %7, align 8, !tbaa !72
  %48 = icmp eq i64 %46, %47
  br i1 %48, label %49, label %51

49:                                               ; preds = %44
  %50 = load i32, ptr %8, align 4, !tbaa !30
  store i32 %50, ptr %4, align 4
  store i32 1, ptr %10, align 4
  br label %58

51:                                               ; preds = %44
  %52 = load i32, ptr %9, align 4, !tbaa !30
  %53 = add i32 %52, 1
  store i32 %53, ptr %9, align 4, !tbaa !30
  br label %54

54:                                               ; preds = %51, %43
  %55 = load i32, ptr %8, align 4, !tbaa !30
  %56 = add i32 %55, 1
  store i32 %56, ptr %8, align 4, !tbaa !30
  br label %23, !llvm.loop !296

57:                                               ; preds = %23
  store i32 -1, ptr %4, align 4
  store i32 1, ptr %10, align 4
  br label %58

58:                                               ; preds = %57, %49, %21
  call void @llvm.lifetime.end.p0(i64 4, ptr %9) #15
  call void @llvm.lifetime.end.p0(i64 4, ptr %8) #15
  %59 = load i32, ptr %4, align 4
  ret i32 %59
}