; Function Attrs: nofree norecurse nosync nounwind memory(read, inaccessiblemem: none) uwtable
define internal fastcc i32 @get_nth_codec_stream_index(ptr noundef readonly captures(none) %0, i32 noundef range(i32 0, 4) %1, i64 noundef %2) unnamed_addr #12 {
  %4 = icmp slt i64 %2, 0
  br i1 %4, label %.loopexit, label %5

5:                                                ; preds = %3
  %6 = getelementptr inbounds nuw i8, ptr %0, i64 44
  %7 = load i32, ptr %6, align 4, !tbaa !144
  %8 = add i32 %7, -1
  %9 = zext i32 %8 to i64
  %10 = icmp samesign ule i64 %2, %9
  %11 = icmp ne i32 %7, 0
  %or.cond = and i1 %10, %11
  br i1 %or.cond, label %.lr.ph, label %.loopexit

.lr.ph:                                           ; preds = %5
  %12 = getelementptr inbounds nuw i8, ptr %0, i64 48
  %13 = load ptr, ptr %12, align 8, !tbaa !50
  %wide.trip.count = zext i32 %7 to i64
  br label %14

14:                                               ; preds = %.lr.ph, %25
  %indvars.iv = phi i64 [ 0, %.lr.ph ], [ %indvars.iv.next, %25 ]
  %.017 = phi i32 [ 0, %.lr.ph ], [ %.1, %25 ]
  %15 = getelementptr inbounds nuw ptr, ptr %13, i64 %indvars.iv
  %16 = load ptr, ptr %15, align 8, !tbaa !36
  %17 = getelementptr inbounds nuw i8, ptr %16, i64 16
  %18 = load ptr, ptr %17, align 8, !tbaa !39
  %19 = load i32, ptr %18, align 8, !tbaa !46
  %.not = icmp eq i32 %19, %1
  br i1 %.not, label %20, label %25

20:                                               ; preds = %14
  %21 = zext i32 %.017 to i64
  %22 = icmp eq i64 %2, %21
  br i1 %22, label %.loopexit.loopexit.split.loop.exit21, label %23

23:                                               ; preds = %20
  %24 = add i32 %.017, 1
  br label %25

25:                                               ; preds = %14, %23
  %.1 = phi i32 [ %.017, %14 ], [ %24, %23 ]
  %indvars.iv.next = add nuw nsw i64 %indvars.iv, 1
  %exitcond.not = icmp eq i64 %indvars.iv.next, %wide.trip.count
  br i1 %exitcond.not, label %.loopexit, label %14, !llvm.loop !266

.loopexit.loopexit.split.loop.exit21:             ; preds = %20
  %26 = trunc nuw i64 %indvars.iv to i32
  br label %.loopexit

.loopexit:                                        ; preds = %25, %.loopexit.loopexit.split.loop.exit21, %3, %5
  %.014 = phi i32 [ -1, %5 ], [ -1, %3 ], [ %26, %.loopexit.loopexit.split.loop.exit21 ], [ -1, %25 ]
  ret i32 %.014
}